target datalayout = "e-m:e-p270:32:32-p271:32:32-p272:64:64-i64:64-i128:128-f80:128-n8:16:32:64-S128"
target triple = "x86_64-pc-linux-gnu"

%"class.vcg::Color4" = type { %"class.vcg::Point4" }
%"class.vcg::Point4" = type { [4 x i8] }
%"class.vcg::Point3" = type { [3 x float] }
%"class.vcg::Shot" = type { %"class.vcg::Camera", %"class.vcg::Shot<float>::ReferenceFrame" }
%"class.vcg::Camera" = type { float, %"class.vcg::Point2", %"class.vcg::Point2.19", %"class.vcg::Point2.19", %"class.vcg::Point2.19", %"struct.std::array", i32 }
%"class.vcg::Point2" = type { [2 x i32] }
%"class.vcg::Point2.19" = type { [2 x float] }
%"struct.std::array" = type { [4 x float] }
%"class.vcg::Shot<float>::ReferenceFrame" = type { %"class.vcg::Matrix44", %"class.vcg::Point3" }
%"class.vcg::Matrix44" = type { %"struct.std::array.20" }
%"struct.std::array.20" = type { [16 x float] }
%struct.QListData = type { ptr }
%class.QObject = type { ptr, %class.QScopedPointer }
%class.QScopedPointer = type { ptr }
%class.QList = type { %union.anon }
%union.anon = type { %struct.QListData }
%class.QFileInfo = type { %class.QSharedDataPointer }
%class.QSharedDataPointer = type { ptr }
%class.DecorateBasePlugin = type { %class.QObject, %class.DecoratePlugin.base, %"class.vcg::Color4", %"class.vcg::Shot", %class.QMap, %class.MeshLabPlugin }
%class.DecoratePlugin.base = type { %class.MeshLabPluginLogger, %class.QList, %class.QList.16 }
%class.MeshLabPluginLogger = type { ptr, ptr }
%class.QList.16 = type { %union.anon.18 }
%union.anon.18 = type { %struct.QListData }
%class.QMap = type { ptr }
%class.MeshLabPlugin = type { ptr, i8, %class.QFileInfo }

; Function Attrs: mustprogress uwtable
define void @_ZN18DecorateBasePlugin11endDecorateEPK7QActionR9MeshModelPK17RichParameterListP6GLArea(ptr noundef nonnull align 8 dereferenceable(192) %0, ptr noundef %1, ptr noundef nonnull align 8 dereferenceable(1288) %2, ptr noundef %3, ptr noundef %4) unnamed_addr #5 align 2 {
  %6 = alloca ptr, align 8
  %7 = alloca ptr, align 8
  %8 = alloca ptr, align 8
  %9 = alloca ptr, align 8
  %10 = alloca ptr, align 8
  %11 = alloca ptr, align 8
  %12 = alloca ptr, align 8
  %13 = alloca ptr, align 8
  store ptr %0, ptr %6, align 8
  store ptr %1, ptr %7, align 8
  store ptr %2, ptr %8, align 8
  store ptr %3, ptr %9, align 8
  store ptr %4, ptr %10, align 8
  %14 = load ptr, ptr %6, align 8
  %15 = getelementptr inbounds i8, ptr %14, i64 16
  %16 = load ptr, ptr %7, align 8
  %17 = load ptr, ptr %15, align 8
  %18 = getelementptr inbounds ptr, ptr %17, i64 18
  %19 = load ptr, ptr %18, align 8
  %20 = call noundef i32 %19(ptr noundef nonnull align 8 dereferenceable(32) %15, ptr noundef %16)
  switch i32 %20, label %42 [
    i32 8, label %21
  ]

21:                                               ; preds = %5
  %22 = getelementptr inbounds %class.DecorateBasePlugin, ptr %14, i32 0, i32 4
  %23 = load ptr, ptr %8, align 8
  store ptr %23, ptr %11, align 8
  %24 = call noundef nonnull align 8 dereferenceable(8) ptr @_ZN4QMapIP9MeshModelP16QGLShaderProgramEixERKS1_(ptr noundef nonnull align 8 dereferenceable(8) %22, ptr noundef nonnull align 8 dereferenceable(8) %11)
  %25 = load ptr, ptr %24, align 8
  %26 = icmp ne ptr %25, null
  br i1 %26, label %27, label %41

27:                                               ; preds = %21
  %28 = getelementptr inbounds %class.DecorateBasePlugin, ptr %14, i32 0, i32 4
  %29 = load ptr, ptr %8, align 8
  store ptr %29, ptr %12, align 8
  %30 = call noundef nonnull align 8 dereferenceable(8) ptr @_ZN4QMapIP9MeshModelP16QGLShaderProgramEixERKS1_(ptr noundef nonnull align 8 dereferenceable(8) %28, ptr noundef nonnull align 8 dereferenceable(8) %12)
  %31 = load ptr, ptr %30, align 8
  %32 = icmp eq ptr %31, null
  br i1 %32, label %37, label %33

33:                                               ; preds = %27
  %34 = load ptr, ptr %31, align 8
  %35 = getelementptr inbounds ptr, ptr %34, i64 4
  %36 = load ptr, ptr %35, align 8
  call void %36(ptr noundef nonnull align 8 dereferenceable(16) %31) #3
  br label %37

37:                                               ; preds = %33, %27
  %38 = getelementptr inbounds %class.DecorateBasePlugin, ptr %14, i32 0, i32 4
  %39 = load ptr, ptr %8, align 8
  store ptr %39, ptr %13, align 8
  %40 = call noundef nonnull align 8 dereferenceable(8) ptr @_ZN4QMapIP9MeshModelP16QGLShaderProgramEixERKS1_(ptr noundef nonnull align 8 dereferenceable(8) %38, ptr noundef nonnull align 8 dereferenceable(8) %13)
  store ptr null, ptr %40, align 8
  br label %41

41:                                               ; preds = %37, %21
  br label %43

42:                                               ; preds = %5
  br label %43

43:                                               ; preds = %42, %41
  ret void
}

; Function Attrs: uwtable
define void @_ZThn16_N18DecorateBasePlugin11endDecorateEPK7QActionR9MeshModelPK17RichParameterListP6GLArea(ptr noundef %0, ptr noundef %1, ptr noundef nonnull align 8 dereferenceable(1288) %2, ptr noundef %3, ptr noundef %4) unnamed_addr #0 align 2 {
  %6 = alloca ptr, align 8
  %7 = alloca ptr, align 8
  %8 = alloca ptr, align 8
  %9 = alloca ptr, align 8
  %10 = alloca ptr, align 8
  store ptr %0, ptr %6, align 8
  store ptr %1, ptr %7, align 8
  store ptr %2, ptr %8, align 8
  store ptr %3, ptr %9, align 8
  store ptr %4, ptr %10, align 8
  %11 = load ptr, ptr %6, align 8
  %12 = getelementptr inbounds i8, ptr %11, i64 -16
  %13 = load ptr, ptr %7, align 8
  %14 = load ptr, ptr %8, align 8
  %15 = load ptr, ptr %9, align 8
  %16 = load ptr, ptr %10, align 8
  tail call void @_ZN18DecorateBasePlugin11endDecorateEPK7QActionR9MeshModelPK17RichParameterListP6GLArea(ptr noundef nonnull align 8 dereferenceable(192) %12, ptr noundef %13, ptr noundef nonnull align 8 dereferenceable(1288) %14, ptr noundef %15, ptr noundef %16)
  ret void
}