; Function Attrs: uwtable
define void @_ZThn16_N18DecorateBasePlugin11endDecorateEPK7QActionR9MeshModelPK17RichParameterListP6GLArea(ptr noundef %0, ptr noundef %1, ptr noundef nonnull align 8 dereferenceable(1288) %2, ptr nocapture noundef readnone %3, ptr nocapture noundef readnone %4) unnamed_addr #11 align 2 {
  %6 = alloca ptr, align 8
  %7 = alloca ptr, align 8
  %8 = alloca ptr, align 8
  call void @llvm.lifetime.start.p0(i64 8, ptr nonnull %6)
  call void @llvm.lifetime.start.p0(i64 8, ptr nonnull %7)
  call void @llvm.lifetime.start.p0(i64 8, ptr nonnull %8)
  %9 = load ptr, ptr %0, align 8
  %10 = getelementptr inbounds i8, ptr %9, i64 144
  %11 = load ptr, ptr %10, align 8
  %12 = tail call noundef i32 %11(ptr noundef nonnull align 8 dereferenceable(32) %0, ptr noundef %1)
  %cond.i = icmp eq i32 %12, 8
  br i1 %cond.i, label %13, label %_ZN18DecorateBasePlugin11endDecorateEPK7QActionR9MeshModelPK17RichParameterListP6GLArea.exit

13:                                               ; preds = %5
  %14 = getelementptr inbounds i8, ptr %0, i64 168
  store ptr %2, ptr %6, align 8
  %15 = call noundef nonnull align 8 dereferenceable(8) ptr @_ZN4QMapIP9MeshModelP16QGLShaderProgramEixERKS1_(ptr noundef nonnull align 8 dereferenceable(8) %14, ptr noundef nonnull align 8 dereferenceable(8) %6)
  %16 = load ptr, ptr %15, align 8
  %.not.i = icmp eq ptr %16, null
  br i1 %.not.i, label %_ZN18DecorateBasePlugin11endDecorateEPK7QActionR9MeshModelPK17RichParameterListP6GLArea.exit, label %17

17:                                               ; preds = %13
  store ptr %2, ptr %7, align 8
  %18 = call noundef nonnull align 8 dereferenceable(8) ptr @_ZN4QMapIP9MeshModelP16QGLShaderProgramEixERKS1_(ptr noundef nonnull align 8 dereferenceable(8) %14, ptr noundef nonnull align 8 dereferenceable(8) %7)
  %19 = load ptr, ptr %18, align 8
  %20 = icmp eq ptr %19, null
  br i1 %20, label %25, label %21

21:                                               ; preds = %17
  %22 = load ptr, ptr %19, align 8
  %23 = getelementptr inbounds i8, ptr %22, i64 32
  %24 = load ptr, ptr %23, align 8
  call void %24(ptr noundef nonnull align 8 dereferenceable(16) %19) #27
  br label %25

25:                                               ; preds = %21, %17
  store ptr %2, ptr %8, align 8
  %26 = call noundef nonnull align 8 dereferenceable(8) ptr @_ZN4QMapIP9MeshModelP16QGLShaderProgramEixERKS1_(ptr noundef nonnull align 8 dereferenceable(8) %14, ptr noundef nonnull align 8 dereferenceable(8) %8)
  store ptr null, ptr %26, align 8
  br label %_ZN18DecorateBasePlugin11endDecorateEPK7QActionR9MeshModelPK17RichParameterListP6GLArea.exit

_ZN18DecorateBasePlugin11endDecorateEPK7QActionR9MeshModelPK17RichParameterListP6GLArea.exit: ; preds = %5, %13, %25
  call void @llvm.lifetime.end.p0(i64 8, ptr nonnull %6)
  call void @llvm.lifetime.end.p0(i64 8, ptr nonnull %7)
  call void @llvm.lifetime.end.p0(i64 8, ptr nonnull %8)
  ret void
}